target datalayout = "e-m:e-p270:32:32-p271:32:32-p272:64:64-i64:64-i128:128-f80:128-n8:16:32:64-S128"
target triple = "x86_64-pc-linux-gnu"

%struct.VLCElem = type { %union.anon.1 }
%union.anon.1 = type { %struct.anon }
%struct.anon = type { i16, i16 }
%struct.VLC = type { i32, ptr, i32, i32 }

@bink_init_vlcs.table = internal global [976 x %struct.VLCElem] zeroinitializer, align 16
@bink_trees = internal global [16 x %struct.VLC] zeroinitializer, align 16

; Function Attrs: cold nounwind optsize uwtable
define internal void @bink_init_vlcs() #0 {
  %1 = alloca i32, align 4
  %2 = alloca i32, align 4
  %3 = alloca i32, align 4
  call void @llvm.lifetime.start.p0(i64 4, ptr %1) #10
  store i32 0, ptr %1, align 4, !tbaa !40
  call void @llvm.lifetime.start.p0(i64 4, ptr %2) #10
  store i32 0, ptr %2, align 4, !tbaa !40
  br label %4

4:                                                ; preds = %48, %0
  %5 = load i32, ptr %1, align 4, !tbaa !40
  %6 = icmp slt i32 %5, 16
  br i1 %6, label %8, label %7

7:                                                ; preds = %4
  call void @llvm.lifetime.end.p0(i64 4, ptr %2) #10
  call void @llvm.lifetime.end.p0(i64 4, ptr %1) #10
  br label %51

8:                                                ; preds = %4
  call void @llvm.lifetime.start.p0(i64 4, ptr %3) #10
  %9 = load i32, ptr %1, align 4, !tbaa !40
  %10 = sext i32 %9 to i64
  %11 = getelementptr inbounds [16 x [16 x i8]], ptr @bink_tree_lens, i64 0, i64 %10
  %12 = getelementptr inbounds [16 x i8], ptr %11, i64 0, i64 15
  %13 = load i8, ptr %12, align 1, !tbaa !39
  %14 = zext i8 %13 to i32
  store i32 %14, ptr %3, align 4, !tbaa !40
  %15 = load i32, ptr %2, align 4, !tbaa !40
  %16 = sext i32 %15 to i64
  %17 = getelementptr inbounds %struct.VLCElem, ptr @bink_init_vlcs.table, i64 %16
  %18 = load i32, ptr %1, align 4, !tbaa !40
  %19 = sext i32 %18 to i64
  %20 = getelementptr inbounds [16 x %struct.VLC], ptr @bink_trees, i64 0, i64 %19
  %21 = getelementptr inbounds nuw %struct.VLC, ptr %20, i32 0, i32 1
  store ptr %17, ptr %21, align 8, !tbaa !71
  %22 = load i32, ptr %3, align 4, !tbaa !40
  %23 = shl i32 1, %22
  %24 = load i32, ptr %1, align 4, !tbaa !40
  %25 = sext i32 %24 to i64
  %26 = getelementptr inbounds [16 x %struct.VLC], ptr @bink_trees, i64 0, i64 %25
  %27 = getelementptr inbounds nuw %struct.VLC, ptr %26, i32 0, i32 3
  store i32 %23, ptr %27, align 4, !tbaa !74
  %28 = load i32, ptr %1, align 4, !tbaa !40
  %29 = sext i32 %28 to i64
  %30 = getelementptr inbounds [16 x %struct.VLC], ptr @bink_trees, i64 0, i64 %29
  %31 = getelementptr inbounds nuw %struct.VLC, ptr %30, i32 0, i32 3
  %32 = load i32, ptr %31, align 4, !tbaa !74
  %33 = load i32, ptr %2, align 4, !tbaa !40
  %34 = add nsw i32 %33, %32
  store i32 %34, ptr %2, align 4, !tbaa !40
  %35 = load i32, ptr %1, align 4, !tbaa !40
  %36 = sext i32 %35 to i64
  %37 = getelementptr inbounds [16 x %struct.VLC], ptr @bink_trees, i64 0, i64 %36
  %38 = load i32, ptr %3, align 4, !tbaa !40
  %39 = load i32, ptr %1, align 4, !tbaa !40
  %40 = sext i32 %39 to i64
  %41 = getelementptr inbounds [16 x [16 x i8]], ptr @bink_tree_lens, i64 0, i64 %40
  %42 = getelementptr inbounds [16 x i8], ptr %41, i64 0, i64 0
  %43 = load i32, ptr %1, align 4, !tbaa !40
  %44 = sext i32 %43 to i64
  %45 = getelementptr inbounds [16 x [16 x i8]], ptr @bink_tree_bits, i64 0, i64 %44
  %46 = getelementptr inbounds [16 x i8], ptr %45, i64 0, i64 0
  %47 = call i32 @ff_vlc_init_sparse(ptr noundef %37, i32 noundef %38, i32 noundef 16, ptr noundef %42, i32 noundef 1, i32 noundef 1, ptr noundef %46, i32 noundef 1, i32 noundef 1, ptr noundef null, i32 noundef 0, i32 noundef 0, i32 noundef 13)
  call void @llvm.lifetime.end.p0(i64 4, ptr %3) #10
  br label %48

48:                                               ; preds = %8
  %49 = load i32, ptr %1, align 4, !tbaa !40
  %50 = add nsw i32 %49, 1
  store i32 %50, ptr %1, align 4, !tbaa !40
  br label %4, !llvm.loop !75

51:                                               ; preds = %7
  ret void
}