; Function Attrs: cold nounwind optsize uwtable
define internal void @bink_init_vlcs() #0 {
  br label %2

1:                                                ; preds = %2
  ret void

2:                                                ; preds = %0, %2
  %indvars.iv = phi i64 [ 0, %0 ], [ %indvars.iv.next, %2 ]
  %.01314 = phi i32 [ 0, %0 ], [ %13, %2 ]
  %3 = getelementptr inbounds nuw [16 x [16 x i8]], ptr @bink_tree_lens, i64 0, i64 %indvars.iv
  %4 = getelementptr inbounds nuw i8, ptr %3, i64 15
  %5 = load i8, ptr %4, align 1, !tbaa !36
  %6 = zext i8 %5 to i32
  %7 = sext i32 %.01314 to i64
  %8 = getelementptr inbounds %struct.VLCElem, ptr @bink_init_vlcs.table, i64 %7
  %9 = getelementptr inbounds nuw [16 x %struct.VLC], ptr @bink_trees, i64 0, i64 %indvars.iv
  %10 = getelementptr inbounds nuw i8, ptr %9, i64 8
  store ptr %8, ptr %10, align 8, !tbaa !98
  %11 = shl nuw i32 1, %6
  %12 = getelementptr inbounds nuw i8, ptr %9, i64 20
  store i32 %11, ptr %12, align 4, !tbaa !101
  %13 = add nsw i32 %11, %.01314
  %14 = getelementptr inbounds nuw [16 x [16 x i8]], ptr @bink_tree_bits, i64 0, i64 %indvars.iv
  %15 = tail call i32 @ff_vlc_init_sparse(ptr noundef nonnull %9, i32 noundef %6, i32 noundef 16, ptr noundef nonnull %3, i32 noundef 1, i32 noundef 1, ptr noundef nonnull %14, i32 noundef 1, i32 noundef 1, ptr noundef null, i32 noundef 0, i32 noundef 0, i32 noundef 13) #11
  %indvars.iv.next = add nuw nsw i64 %indvars.iv, 1
  %exitcond.not = icmp eq i64 %indvars.iv.next, 16
  br i1 %exitcond.not, label %1, label %2, !llvm.loop !102
}